; Function Attrs: mustprogress noreturn uwtable
define void @_ZN2cv16setOpenGlContextERKNSt7__cxx1112basic_stringIcSt11char_traitsIcESaIcEEE(ptr noundef nonnull align 8 dereferenceable(32) %0) local_unnamed_addr #9 personality ptr @__gxx_personality_v0 {
  %2 = alloca %"class.std::__cxx11::basic_string", align 8
  %3 = alloca %"class.std::allocator", align 1
  %4 = alloca %"class.cv::utils::trace::details::Region", align 8
  call void @_ZN2cv5utils5trace7details6RegionC1ERKNS3_21LocationStaticStorageE(ptr noundef nonnull align 8 dereferenceable(12) %4, ptr noundef nonnull align 8 dereferenceable(32) @_ZZN2cv16setOpenGlContextERKNSt7__cxx1112basic_stringIcSt11char_traitsIcESaIcEEEE25__cv_trace_location_fn942)
  %5 = call noundef ptr @_ZNKSt7__cxx1112basic_stringIcSt11char_traitsIcESaIcEE5c_strEv(ptr noundef nonnull align 8 dereferenceable(32) %0) #20
  call void @llvm.lifetime.start.p0(i64 32, ptr nonnull %2)
  call void @llvm.lifetime.start.p0(i64 1, ptr nonnull %3)
  call void @_ZNSaIcEC1Ev(ptr noundef nonnull align 1 dereferenceable(1) %3) #20
  invoke void @_ZNSt7__cxx1112basic_stringIcSt11char_traitsIcESaIcEEC1EPKcRKS3_(ptr noundef nonnull align 8 dereferenceable(32) %2, ptr noundef nonnull @.str.42, ptr noundef nonnull align 1 dereferenceable(1) %3)
          to label %6 unwind label %8

6:                                                ; preds = %1
  invoke void @_ZN2cv5errorEiRKNSt7__cxx1112basic_stringIcSt11char_traitsIcESaIcEEEPKcS9_i(i32 noundef -218, ptr noundef nonnull align 8 dereferenceable(32) %2, ptr noundef nonnull @__func__.cvSetOpenGlContext, ptr noundef nonnull @.str.1, i32 noundef 1134) #22
          to label %7 unwind label %10

7:                                                ; preds = %6
  unreachable

8:                                                ; preds = %1
  %9 = landingpad { ptr, i32 }
          cleanup
  br label %.body

10:                                               ; preds = %6
  %11 = landingpad { ptr, i32 }
          cleanup
  call void @_ZNSt7__cxx1112basic_stringIcSt11char_traitsIcESaIcEED1Ev(ptr noundef nonnull align 8 dereferenceable(32) %2) #20
  br label %.body

.body:                                            ; preds = %10, %8
  %.pn.i = phi { ptr, i32 } [ %11, %10 ], [ %9, %8 ]
  call void @_ZNSaIcED1Ev(ptr noundef nonnull align 1 dereferenceable(1) %3) #20
  call void @_ZN2cv5utils5trace7details6RegionD2Ev(ptr noundef nonnull align 8 dereferenceable(12) %4) #20
  resume { ptr, i32 } %.pn.i
}